; Function Attrs: nounwind uwtable
define dso_local noundef i32 @fini() local_unnamed_addr #0 {
  %1 = tail call zeroext i1 @slurm_running_in_slurmd_stepd() #8
  br i1 %1, label %2, label %4

2:                                                ; preds = %0
  %3 = load ptr, ptr @local_energy, align 8
  tail call void @acct_gather_energy_destroy(ptr noundef %3) #8
  store ptr null, ptr @local_energy, align 8
  br label %4

4:                                                ; preds = %0, %2
  ret i32 0
}